target datalayout = "e-m:e-p270:32:32-p271:32:32-p272:64:64-i64:64-i128:128-f80:128-n8:16:32:64-S128"
target triple = "x86_64-pc-linux-gnu"

%"class.pxrInternal_v0_24__pxrReserved__::VtArray" = type { %"class.pxrInternal_v0_24__pxrReserved__::Vt_ArrayBase", ptr }
%"class.pxrInternal_v0_24__pxrReserved__::Vt_ArrayBase" = type { %"struct.pxrInternal_v0_24__pxrReserved__::Vt_ShapeData", ptr }
%"struct.pxrInternal_v0_24__pxrReserved__::Vt_ShapeData" = type { i64, [3 x i32] }
%"class.pxrInternal_v0_24__pxrReserved__::UsdSkelSkeletonQuery" = type { %"class.pxrInternal_v0_24__pxrReserved__::TfRefPtr", %"class.pxrInternal_v0_24__pxrReserved__::UsdSkelAnimQuery", %"class.pxrInternal_v0_24__pxrReserved__::UsdSkelAnimMapper" }
%"class.pxrInternal_v0_24__pxrReserved__::TfRefPtr" = type { ptr }
%"class.pxrInternal_v0_24__pxrReserved__::UsdSkelAnimQuery" = type { %"class.pxrInternal_v0_24__pxrReserved__::TfRefPtr.0" }
%"class.pxrInternal_v0_24__pxrReserved__::TfRefPtr.0" = type { ptr }
%"class.pxrInternal_v0_24__pxrReserved__::UsdSkelAnimMapper" = type <{ i64, i64, %"class.pxrInternal_v0_24__pxrReserved__::VtArray", i32, [4 x i8] }>
%"class.pxrInternal_v0_24__pxrReserved__::Tf_HashState" = type <{ i64, i8, [7 x i8] }>

; Function Attrs: mustprogress uwtable
define linkonce_odr void @_ZN32pxrInternal_v0_24__pxrReserved__15Tf_HashStateAPIINS_12Tf_HashStateEE11_AppendImplImJEEEvOT_DpOT0_(ptr noundef nonnull align 1 dereferenceable(1) %0, ptr noundef nonnull align 8 dereferenceable(8) %1) #0 comdat align 2 {
  %3 = alloca ptr, align 8
  %4 = alloca ptr, align 8
  store ptr %0, ptr %3, align 8
  store ptr %1, ptr %4, align 8
  %5 = load ptr, ptr %3, align 8
  %6 = call noundef nonnull align 8 dereferenceable(9) ptr @_ZN32pxrInternal_v0_24__pxrReserved__15Tf_HashStateAPIINS_12Tf_HashStateEE10_AsDerivedEv(ptr noundef nonnull align 1 dereferenceable(1) %5)
  %7 = load ptr, ptr %4, align 8
  %8 = load i64, ptr %7, align 8
  call void @_ZN32pxrInternal_v0_24__pxrReserved__12Tf_HashState7_AppendImEENSt9enable_ifIXsr3std11is_integralIT_EE5valueEvE4typeES3_(ptr noundef nonnull align 8 dereferenceable(9) %6, i64 noundef %8)
  call void @_ZNK32pxrInternal_v0_24__pxrReserved__15Tf_HashStateAPIINS_12Tf_HashStateEE11_AppendImplEv(ptr noundef nonnull align 1 dereferenceable(1) %5)
  ret void
}

; Function Attrs: mustprogress uwtable
define linkonce_odr void @_ZN32pxrInternal_v0_24__pxrReserved__15Tf_HashStateAPIINS_12Tf_HashStateEE6AppendIJmEEEvDpOT_(ptr noundef nonnull align 1 dereferenceable(1) %0, ptr noundef nonnull align 8 dereferenceable(8) %1) #0 comdat align 2 {
  %3 = alloca ptr, align 8
  %4 = alloca ptr, align 8
  store ptr %0, ptr %3, align 8
  store ptr %1, ptr %4, align 8
  %5 = load ptr, ptr %3, align 8
  %6 = load ptr, ptr %4, align 8
  call void @_ZN32pxrInternal_v0_24__pxrReserved__15Tf_HashStateAPIINS_12Tf_HashStateEE11_AppendImplImJEEEvOT_DpOT0_(ptr noundef nonnull align 1 dereferenceable(1) %5, ptr noundef nonnull align 8 dereferenceable(8) %6)
  ret void
}

; Function Attrs: mustprogress nounwind uwtable
define linkonce_odr noundef i64 @_ZNK32pxrInternal_v0_24__pxrReserved__12Tf_HashState8_CombineEmm(ptr noundef nonnull align 8 dereferenceable(9) %0, i64 noundef %1, i64 noundef %2) #1 comdat align 2 {
  %4 = alloca ptr, align 8
  %5 = alloca i64, align 8
  %6 = alloca i64, align 8
  store ptr %0, ptr %4, align 8
  store i64 %1, ptr %5, align 8
  store i64 %2, ptr %6, align 8
  %7 = load i64, ptr %6, align 8
  %8 = load i64, ptr %5, align 8
  %9 = add i64 %8, %7
  store i64 %9, ptr %5, align 8
  %10 = load i64, ptr %6, align 8
  %11 = load i64, ptr %5, align 8
  %12 = load i64, ptr %5, align 8
  %13 = add i64 %12, 1
  %14 = mul i64 %11, %13
  %15 = udiv i64 %14, 2
  %16 = add i64 %10, %15
  ret i64 %16
}

; Function Attrs: mustprogress uwtable
define linkonce_odr void @_ZN32pxrInternal_v0_24__pxrReserved__12TfHashAppendINS_12Tf_HashStateENS_22UsdSkel_SkelDefinitionEEEvRT_PKT0_(ptr noundef nonnull align 8 dereferenceable(9) %0, ptr noundef %1) #0 comdat {
  %3 = alloca ptr, align 8
  %4 = alloca ptr, align 8
  %5 = alloca i64, align 8
  store ptr %0, ptr %3, align 8
  store ptr %1, ptr %4, align 8
  %6 = load ptr, ptr %3, align 8
  %7 = load ptr, ptr %4, align 8
  %8 = ptrtoint ptr %7 to i64
  store i64 %8, ptr %5, align 8
  call void @_ZN32pxrInternal_v0_24__pxrReserved__15Tf_HashStateAPIINS_12Tf_HashStateEE6AppendIJmEEEvDpOT_(ptr noundef nonnull align 1 dereferenceable(1) %6, ptr noundef nonnull align 8 dereferenceable(8) %5)
  ret void
}

; Function Attrs: mustprogress uwtable
define linkonce_odr void @_ZN32pxrInternal_v0_24__pxrReserved__12Tf_HashState7_AppendImEENSt9enable_ifIXsr3std11is_integralIT_EE5valueEvE4typeES3_(ptr noundef nonnull align 8 dereferenceable(9) %0, i64 noundef %1) #0 comdat align 2 {
  %3 = alloca ptr, align 8
  %4 = alloca i64, align 8
  store ptr %0, ptr %3, align 8
  store i64 %1, ptr %4, align 8
  %5 = load ptr, ptr %3, align 8
  %6 = getelementptr inbounds nuw %"class.pxrInternal_v0_24__pxrReserved__::Tf_HashState", ptr %5, i32 0, i32 1
  %7 = load i8, ptr %6, align 8
  %8 = trunc i8 %7 to i1
  br i1 %8, label %13, label %9

9:                                                ; preds = %2
  %10 = load i64, ptr %4, align 8
  %11 = getelementptr inbounds nuw %"class.pxrInternal_v0_24__pxrReserved__::Tf_HashState", ptr %5, i32 0, i32 0
  store i64 %10, ptr %11, align 8
  %12 = getelementptr inbounds nuw %"class.pxrInternal_v0_24__pxrReserved__::Tf_HashState", ptr %5, i32 0, i32 1
  store i8 1, ptr %12, align 8
  br label %19

13:                                               ; preds = %2
  %14 = getelementptr inbounds nuw %"class.pxrInternal_v0_24__pxrReserved__::Tf_HashState", ptr %5, i32 0, i32 0
  %15 = load i64, ptr %14, align 8
  %16 = load i64, ptr %4, align 8
  %17 = call noundef i64 @_ZNK32pxrInternal_v0_24__pxrReserved__12Tf_HashState8_CombineEmm(ptr noundef nonnull align 8 dereferenceable(9) %5, i64 noundef %15, i64 noundef %16)
  %18 = getelementptr inbounds nuw %"class.pxrInternal_v0_24__pxrReserved__::Tf_HashState", ptr %5, i32 0, i32 0
  store i64 %17, ptr %18, align 8
  br label %19

19:                                               ; preds = %13, %9
  ret void
}

; Function Attrs: mustprogress uwtable
define linkonce_odr void @_ZN32pxrInternal_v0_24__pxrReserved__11Tf_HashImplINS_12Tf_HashStateEPNS_22UsdSkel_SkelDefinitionEEEDTcmcl12TfHashAppendfp_clsr3stdE7forwardIT0_Efp0_EEcvv_EERT_OS4_i(ptr noundef nonnull align 8 dereferenceable(9) %0, ptr noundef nonnull align 8 dereferenceable(8) %1, i32 noundef %2) #0 comdat {
  %4 = alloca ptr, align 8
  %5 = alloca ptr, align 8
  %6 = alloca i32, align 4
  store ptr %0, ptr %4, align 8
  store ptr %1, ptr %5, align 8
  store i32 %2, ptr %6, align 4
  %7 = load ptr, ptr %4, align 8
  %8 = load ptr, ptr %5, align 8
  %9 = load ptr, ptr %8, align 8
  call void @_ZN32pxrInternal_v0_24__pxrReserved__12TfHashAppendINS_12Tf_HashStateENS_22UsdSkel_SkelDefinitionEEEvRT_PKT0_(ptr noundef nonnull align 8 dereferenceable(9) %7, ptr noundef %9)
  ret void
}

; Function Attrs: mustprogress uwtable
define linkonce_odr void @_ZN32pxrInternal_v0_24__pxrReserved__15Tf_HashStateAPIINS_12Tf_HashStateEE11_AppendImplIRmJEEEvOT_DpOT0_(ptr noundef nonnull align 1 dereferenceable(1) %0, ptr noundef nonnull align 8 dereferenceable(8) %1) #0 comdat align 2 {
  %3 = alloca ptr, align 8
  %4 = alloca ptr, align 8
  store ptr %0, ptr %3, align 8
  store ptr %1, ptr %4, align 8
  %5 = load ptr, ptr %3, align 8
  %6 = call noundef nonnull align 8 dereferenceable(9) ptr @_ZN32pxrInternal_v0_24__pxrReserved__15Tf_HashStateAPIINS_12Tf_HashStateEE10_AsDerivedEv(ptr noundef nonnull align 1 dereferenceable(1) %5)
  %7 = load ptr, ptr %4, align 8
  %8 = load i64, ptr %7, align 8
  call void @_ZN32pxrInternal_v0_24__pxrReserved__12Tf_HashState7_AppendImEENSt9enable_ifIXsr3std11is_integralIT_EE5valueEvE4typeES3_(ptr noundef nonnull align 8 dereferenceable(9) %6, i64 noundef %8)
  call void @_ZNK32pxrInternal_v0_24__pxrReserved__15Tf_HashStateAPIINS_12Tf_HashStateEE11_AppendImplEv(ptr noundef nonnull align 1 dereferenceable(1) %5)
  ret void
}

; Function Attrs: mustprogress nounwind uwtable
define linkonce_odr void @_ZNK32pxrInternal_v0_24__pxrReserved__15Tf_HashStateAPIINS_12Tf_HashStateEE11_AppendImplEv(ptr noundef nonnull align 1 dereferenceable(1) %0) #1 comdat align 2 {
  %2 = alloca ptr, align 8
  store ptr %0, ptr %2, align 8
  ret void
}

; Function Attrs: mustprogress uwtable
define linkonce_odr void @_ZN32pxrInternal_v0_24__pxrReserved__12Tf_HashState7_AppendIPNS_22UsdSkel_SkelDefinitionEEENSt9enable_ifIXntsr3std11is_integralINSt5decayIT_E4typeEEE5valueEvE4typeEOS6_(ptr noundef nonnull align 8 dereferenceable(9) %0, ptr noundef nonnull align 8 dereferenceable(8) %1) #0 comdat align 2 {
  %3 = alloca ptr, align 8
  %4 = alloca ptr, align 8
  store ptr %0, ptr %3, align 8
  store ptr %1, ptr %4, align 8
  %5 = load ptr, ptr %3, align 8
  %6 = load ptr, ptr %4, align 8
  call void @_ZN32pxrInternal_v0_24__pxrReserved__11Tf_HashImplINS_12Tf_HashStateEPNS_22UsdSkel_SkelDefinitionEEEDTcmcl12TfHashAppendfp_clsr3stdE7forwardIT0_Efp0_EEcvv_EERT_OS4_i(ptr noundef nonnull align 8 dereferenceable(9) %5, ptr noundef nonnull align 8 dereferenceable(8) %6, i32 noundef 0)
  ret void
}

; Function Attrs: mustprogress nounwind uwtable
define linkonce_odr noundef nonnull align 8 dereferenceable(9) ptr @_ZN32pxrInternal_v0_24__pxrReserved__15Tf_HashStateAPIINS_12Tf_HashStateEE10_AsDerivedEv(ptr noundef nonnull align 1 dereferenceable(1) %0) #1 comdat align 2 {
  %2 = alloca ptr, align 8
  store ptr %0, ptr %2, align 8
  %3 = load ptr, ptr %2, align 8
  ret ptr %3
}

; Function Attrs: mustprogress uwtable
define linkonce_odr void @_ZN32pxrInternal_v0_24__pxrReserved__15Tf_HashStateAPIINS_12Tf_HashStateEE6AppendIJRmEEEvDpOT_(ptr noundef nonnull align 1 dereferenceable(1) %0, ptr noundef nonnull align 8 dereferenceable(8) %1) #0 comdat align 2 {
  %3 = alloca ptr, align 8
  %4 = alloca ptr, align 8
  store ptr %0, ptr %3, align 8
  store ptr %1, ptr %4, align 8
  %5 = load ptr, ptr %3, align 8
  %6 = load ptr, ptr %4, align 8
  call void @_ZN32pxrInternal_v0_24__pxrReserved__15Tf_HashStateAPIINS_12Tf_HashStateEE11_AppendImplIRmJEEEvOT_DpOT0_(ptr noundef nonnull align 1 dereferenceable(1) %5, ptr noundef nonnull align 8 dereferenceable(8) %6)
  ret void
}

; Function Attrs: mustprogress uwtable
define linkonce_odr void @_ZN32pxrInternal_v0_24__pxrReserved__15Tf_HashStateAPIINS_12Tf_HashStateEE11_AppendImplIPNS_22UsdSkel_SkelDefinitionEJEEEvOT_DpOT0_(ptr noundef nonnull align 1 dereferenceable(1) %0, ptr noundef nonnull align 8 dereferenceable(8) %1) #0 comdat align 2 {
  %3 = alloca ptr, align 8
  %4 = alloca ptr, align 8
  store ptr %0, ptr %3, align 8
  store ptr %1, ptr %4, align 8
  %5 = load ptr, ptr %3, align 8
  %6 = call noundef nonnull align 8 dereferenceable(9) ptr @_ZN32pxrInternal_v0_24__pxrReserved__15Tf_HashStateAPIINS_12Tf_HashStateEE10_AsDerivedEv(ptr noundef nonnull align 1 dereferenceable(1) %5)
  %7 = load ptr, ptr %4, align 8
  call void @_ZN32pxrInternal_v0_24__pxrReserved__12Tf_HashState7_AppendIPNS_22UsdSkel_SkelDefinitionEEENSt9enable_ifIXntsr3std11is_integralINSt5decayIT_E4typeEEE5valueEvE4typeEOS6_(ptr noundef nonnull align 8 dereferenceable(9) %6, ptr noundef nonnull align 8 dereferenceable(8) %7)
  call void @_ZNK32pxrInternal_v0_24__pxrReserved__15Tf_HashStateAPIINS_12Tf_HashStateEE11_AppendImplEv(ptr noundef nonnull align 1 dereferenceable(1) %5)
  ret void
}

; Function Attrs: mustprogress uwtable
define linkonce_odr void @_ZN32pxrInternal_v0_24__pxrReserved__12TfHashAppendINS_12Tf_HashStateEmEENSt9enable_ifIXsr3std11is_integralIT0_EE5valueEvE4typeERT_S3_(ptr noundef nonnull align 8 dereferenceable(9) %0, i64 noundef %1) #0 comdat {
  %3 = alloca ptr, align 8
  %4 = alloca i64, align 8
  store ptr %0, ptr %3, align 8
  store i64 %1, ptr %4, align 8
  %5 = load ptr, ptr %3, align 8
  call void @_ZN32pxrInternal_v0_24__pxrReserved__15Tf_HashStateAPIINS_12Tf_HashStateEE6AppendIJRmEEEvDpOT_(ptr noundef nonnull align 1 dereferenceable(1) %5, ptr noundef nonnull align 8 dereferenceable(8) %4)
  ret void
}

; Function Attrs: mustprogress uwtable
define linkonce_odr void @_ZN32pxrInternal_v0_24__pxrReserved__15Tf_HashStateAPIINS_12Tf_HashStateEE6AppendIJPNS_22UsdSkel_SkelDefinitionEEEEvDpOT_(ptr noundef nonnull align 1 dereferenceable(1) %0, ptr noundef nonnull align 8 dereferenceable(8) %1) #0 comdat align 2 {
  %3 = alloca ptr, align 8
  %4 = alloca ptr, align 8
  store ptr %0, ptr %3, align 8
  store ptr %1, ptr %4, align 8
  %5 = load ptr, ptr %3, align 8
  %6 = load ptr, ptr %4, align 8
  call void @_ZN32pxrInternal_v0_24__pxrReserved__15Tf_HashStateAPIINS_12Tf_HashStateEE11_AppendImplIPNS_22UsdSkel_SkelDefinitionEJEEEvOT_DpOT0_(ptr noundef nonnull align 1 dereferenceable(1) %5, ptr noundef nonnull align 8 dereferenceable(8) %6)
  ret void
}

; Function Attrs: mustprogress nounwind uwtable
define linkonce_odr noundef ptr @_ZN32pxrInternal_v0_24__pxrReserved__11get_pointerERKNS_8TfRefPtrINS_22UsdSkel_SkelDefinitionEEE(ptr noundef nonnull align 8 dereferenceable(8) %0) #1 comdat {
  %2 = alloca ptr, align 8
  store ptr %0, ptr %2, align 8
  %3 = load ptr, ptr %2, align 8
  %4 = getelementptr inbounds nuw %"class.pxrInternal_v0_24__pxrReserved__::TfRefPtr", ptr %3, i32 0, i32 0
  %5 = load ptr, ptr %4, align 8
  ret ptr %5
}

; Function Attrs: mustprogress nounwind uwtable
define linkonce_odr noundef i64 @_ZNK32pxrInternal_v0_24__pxrReserved__12Tf_HashState14_SwapByteOrderEm(ptr noundef nonnull align 8 dereferenceable(9) %0, i64 noundef %1) #1 comdat align 2 {
  %3 = alloca ptr, align 8
  %4 = alloca i64, align 8
  store ptr %0, ptr %3, align 8
  store i64 %1, ptr %4, align 8
  %5 = load i64, ptr %4, align 8
  %6 = and i64 %5, -72057594037927936
  %7 = lshr i64 %6, 56
  %8 = load i64, ptr %4, align 8
  %9 = and i64 %8, 71776119061217280
  %10 = lshr i64 %9, 40
  %11 = or i64 %7, %10
  %12 = load i64, ptr %4, align 8
  %13 = and i64 %12, 280375465082880
  %14 = lshr i64 %13, 24
  %15 = or i64 %11, %14
  %16 = load i64, ptr %4, align 8
  %17 = and i64 %16, 1095216660480
  %18 = lshr i64 %17, 8
  %19 = or i64 %15, %18
  %20 = load i64, ptr %4, align 8
  %21 = and i64 %20, 4278190080
  %22 = shl i64 %21, 8
  %23 = or i64 %19, %22
  %24 = load i64, ptr %4, align 8
  %25 = and i64 %24, 16711680
  %26 = shl i64 %25, 24
  %27 = or i64 %23, %26
  %28 = load i64, ptr %4, align 8
  %29 = and i64 %28, 65280
  %30 = shl i64 %29, 40
  %31 = or i64 %27, %30
  %32 = load i64, ptr %4, align 8
  %33 = and i64 %32, 255
  %34 = shl i64 %33, 56
  %35 = or i64 %31, %34
  store i64 %35, ptr %4, align 8
  %36 = load i64, ptr %4, align 8
  ret i64 %36
}

; Function Attrs: mustprogress nounwind uwtable
define linkonce_odr void @_ZN32pxrInternal_v0_24__pxrReserved__6TfHash12_CombineImplINS_12Tf_HashStateEEEvRT_(ptr noundef nonnull align 8 dereferenceable(9) %0) #1 comdat align 2 {
  %2 = alloca ptr, align 8
  store ptr %0, ptr %2, align 8
  ret void
}

; Function Attrs: mustprogress uwtable
define linkonce_odr void @_ZN32pxrInternal_v0_24__pxrReserved__11Tf_HashImplINS_12Tf_HashStateERKNS_16UsdSkelAnimQueryEEEDTcmcl10hash_valueclsr3stdE7forwardIT0_Efp0_EEcvv_EERT_OS5_z(ptr noundef nonnull align 8 dereferenceable(9) %0, ptr noundef nonnull align 8 dereferenceable(8) %1, ...) #0 comdat {
  %3 = alloca ptr, align 8
  %4 = alloca ptr, align 8
  store ptr %0, ptr %3, align 8
  store ptr %1, ptr %4, align 8
  %5 = load ptr, ptr %3, align 8
  %6 = load ptr, ptr %4, align 8
  %7 = call noundef i64 @_ZN32pxrInternal_v0_24__pxrReserved__10hash_valueERKNS_16UsdSkelAnimQueryE(ptr noundef nonnull align 8 dereferenceable(8) %6)
  call void @_ZN32pxrInternal_v0_24__pxrReserved__12TfHashAppendINS_12Tf_HashStateEmEENSt9enable_ifIXsr3std11is_integralIT0_EE5valueEvE4typeERT_S3_(ptr noundef nonnull align 8 dereferenceable(9) %5, i64 noundef %7)
  ret void
}

; Function Attrs: mustprogress uwtable
define linkonce_odr void @_ZN32pxrInternal_v0_24__pxrReserved__12TfHashAppendINS_12Tf_HashStateENS_22UsdSkel_SkelDefinitionEEEvRT_RKNS_8TfRefPtrIT0_EE(ptr noundef nonnull align 8 dereferenceable(9) %0, ptr noundef nonnull align 8 dereferenceable(8) %1) #0 comdat {
  %3 = alloca ptr, align 8
  %4 = alloca ptr, align 8
  %5 = alloca ptr, align 8
  store ptr %0, ptr %3, align 8
  store ptr %1, ptr %4, align 8
  %6 = load ptr, ptr %3, align 8
  %7 = load ptr, ptr %4, align 8
  %8 = call noundef ptr @_ZN32pxrInternal_v0_24__pxrReserved__11get_pointerERKNS_8TfRefPtrINS_22UsdSkel_SkelDefinitionEEE(ptr noundef nonnull align 8 dereferenceable(8) %7)
  store ptr %8, ptr %5, align 8
  call void @_ZN32pxrInternal_v0_24__pxrReserved__15Tf_HashStateAPIINS_12Tf_HashStateEE6AppendIJPNS_22UsdSkel_SkelDefinitionEEEEvDpOT_(ptr noundef nonnull align 1 dereferenceable(1) %6, ptr noundef nonnull align 8 dereferenceable(8) %5)
  ret void
}

; Function Attrs: mustprogress uwtable
define linkonce_odr noundef i64 @_ZNK32pxrInternal_v0_24__pxrReserved__12Tf_HashState8_GetCodeEv(ptr noundef nonnull align 8 dereferenceable(9) %0) #0 comdat align 2 {
  %2 = alloca ptr, align 8
  store ptr %0, ptr %2, align 8
  %3 = load ptr, ptr %2, align 8
  %4 = getelementptr inbounds nuw %"class.pxrInternal_v0_24__pxrReserved__::Tf_HashState", ptr %3, i32 0, i32 0
  %5 = load i64, ptr %4, align 8
  %6 = mul i64 %5, -7046029254386353067
  %7 = call noundef i64 @_ZNK32pxrInternal_v0_24__pxrReserved__12Tf_HashState14_SwapByteOrderEm(ptr noundef nonnull align 8 dereferenceable(9) %3, i64 noundef %6)
  ret i64 %7
}

; Function Attrs: mustprogress nounwind uwtable
define linkonce_odr noundef nonnull align 8 dereferenceable(9) ptr @_ZNK32pxrInternal_v0_24__pxrReserved__15Tf_HashStateAPIINS_12Tf_HashStateEE10_AsDerivedEv(ptr noundef nonnull align 1 dereferenceable(1) %0) #1 comdat align 2 {
  %2 = alloca ptr, align 8
  store ptr %0, ptr %2, align 8
  %3 = load ptr, ptr %2, align 8
  ret ptr %3
}

; Function Attrs: mustprogress uwtable
define linkonce_odr void @_ZN32pxrInternal_v0_24__pxrReserved__6TfHash12_CombineImplINS_12Tf_HashStateERKNS_16UsdSkelAnimQueryEJEEEvRT_OT0_DpOT1_(ptr noundef nonnull align 8 dereferenceable(9) %0, ptr noundef nonnull align 8 dereferenceable(8) %1) #0 comdat align 2 {
  %3 = alloca ptr, align 8
  %4 = alloca ptr, align 8
  store ptr %0, ptr %3, align 8
  store ptr %1, ptr %4, align 8
  %5 = load ptr, ptr %3, align 8
  %6 = load ptr, ptr %4, align 8
  call void (ptr, ptr, ...) @_ZN32pxrInternal_v0_24__pxrReserved__11Tf_HashImplINS_12Tf_HashStateERKNS_16UsdSkelAnimQueryEEEDTcmcl10hash_valueclsr3stdE7forwardIT0_Efp0_EEcvv_EERT_OS5_z(ptr noundef nonnull align 8 dereferenceable(9) %5, ptr noundef nonnull align 8 dereferenceable(8) %6, i32 noundef 0)
  %7 = load ptr, ptr %3, align 8
  call void @_ZN32pxrInternal_v0_24__pxrReserved__6TfHash12_CombineImplINS_12Tf_HashStateEEEvRT_(ptr noundef nonnull align 8 dereferenceable(9) %7)
  ret void
}

; Function Attrs: mustprogress uwtable
define linkonce_odr void @_ZN32pxrInternal_v0_24__pxrReserved__11Tf_HashImplINS_12Tf_HashStateERKNS_8TfRefPtrINS_22UsdSkel_SkelDefinitionEEEEEDTcmcl12TfHashAppendfp_clsr3stdE7forwardIT0_Efp0_EEcvv_EERT_OS7_i(ptr noundef nonnull align 8 dereferenceable(9) %0, ptr noundef nonnull align 8 dereferenceable(8) %1, i32 noundef %2) #0 comdat {
  %4 = alloca ptr, align 8
  %5 = alloca ptr, align 8
  %6 = alloca i32, align 4
  store ptr %0, ptr %4, align 8
  store ptr %1, ptr %5, align 8
  store i32 %2, ptr %6, align 4
  %7 = load ptr, ptr %4, align 8
  %8 = load ptr, ptr %5, align 8
  call void @_ZN32pxrInternal_v0_24__pxrReserved__12TfHashAppendINS_12Tf_HashStateENS_22UsdSkel_SkelDefinitionEEEvRT_RKNS_8TfRefPtrIT0_EE(ptr noundef nonnull align 8 dereferenceable(9) %7, ptr noundef nonnull align 8 dereferenceable(8) %8)
  ret void
}

; Function Attrs: mustprogress uwtable
define linkonce_odr noundef i64 @_ZNK32pxrInternal_v0_24__pxrReserved__15Tf_HashStateAPIINS_12Tf_HashStateEE7GetCodeEv(ptr noundef nonnull align 1 dereferenceable(1) %0) #0 comdat align 2 {
  %2 = alloca ptr, align 8
  store ptr %0, ptr %2, align 8
  %3 = load ptr, ptr %2, align 8
  %4 = call noundef nonnull align 8 dereferenceable(9) ptr @_ZNK32pxrInternal_v0_24__pxrReserved__15Tf_HashStateAPIINS_12Tf_HashStateEE10_AsDerivedEv(ptr noundef nonnull align 1 dereferenceable(1) %3)
  %5 = call noundef i64 @_ZNK32pxrInternal_v0_24__pxrReserved__12Tf_HashState8_GetCodeEv(ptr noundef nonnull align 8 dereferenceable(9) %4)
  ret i64 %5
}

; Function Attrs: mustprogress uwtable
define linkonce_odr void @_ZN32pxrInternal_v0_24__pxrReserved__6TfHash12_CombineImplINS_12Tf_HashStateERKNS_8TfRefPtrINS_22UsdSkel_SkelDefinitionEEEJRKNS_16UsdSkelAnimQueryEEEEvRT_OT0_DpOT1_(ptr noundef nonnull align 8 dereferenceable(9) %0, ptr noundef nonnull align 8 dereferenceable(8) %1, ptr noundef nonnull align 8 dereferenceable(8) %2) #0 comdat align 2 {
  %4 = alloca ptr, align 8
  %5 = alloca ptr, align 8
  %6 = alloca ptr, align 8
  store ptr %0, ptr %4, align 8
  store ptr %1, ptr %5, align 8
  store ptr %2, ptr %6, align 8
  %7 = load ptr, ptr %4, align 8
  %8 = load ptr, ptr %5, align 8
  call void @_ZN32pxrInternal_v0_24__pxrReserved__11Tf_HashImplINS_12Tf_HashStateERKNS_8TfRefPtrINS_22UsdSkel_SkelDefinitionEEEEEDTcmcl12TfHashAppendfp_clsr3stdE7forwardIT0_Efp0_EEcvv_EERT_OS7_i(ptr noundef nonnull align 8 dereferenceable(9) %7, ptr noundef nonnull align 8 dereferenceable(8) %8, i32 noundef 0)
  %9 = load ptr, ptr %4, align 8
  %10 = load ptr, ptr %6, align 8
  call void @_ZN32pxrInternal_v0_24__pxrReserved__6TfHash12_CombineImplINS_12Tf_HashStateERKNS_16UsdSkelAnimQueryEJEEEvRT_OT0_DpOT1_(ptr noundef nonnull align 8 dereferenceable(9) %9, ptr noundef nonnull align 8 dereferenceable(8) %10)
  ret void
}

; Function Attrs: mustprogress nounwind uwtable
define linkonce_odr void @_ZN32pxrInternal_v0_24__pxrReserved__12Tf_HashStateC2Ev(ptr noundef nonnull align 8 dereferenceable(9) %0) unnamed_addr #1 comdat align 2 {
  %2 = alloca ptr, align 8
  store ptr %0, ptr %2, align 8
  %3 = load ptr, ptr %2, align 8
  %4 = getelementptr inbounds nuw %"class.pxrInternal_v0_24__pxrReserved__::Tf_HashState", ptr %3, i32 0, i32 0
  store i64 0, ptr %4, align 8
  %5 = getelementptr inbounds nuw %"class.pxrInternal_v0_24__pxrReserved__::Tf_HashState", ptr %3, i32 0, i32 1
  store i8 0, ptr %5, align 8
  ret void
}

; Function Attrs: mustprogress uwtable
define linkonce_odr noundef i64 @_ZN32pxrInternal_v0_24__pxrReserved__6TfHash7CombineIJRKNS_8TfRefPtrINS_22UsdSkel_SkelDefinitionEEERKNS_16UsdSkelAnimQueryEEEEmDpOT_(ptr noundef nonnull align 8 dereferenceable(8) %0, ptr noundef nonnull align 8 dereferenceable(8) %1) #0 comdat align 2 {
  %3 = alloca ptr, align 8
  %4 = alloca ptr, align 8
  %5 = alloca %"class.pxrInternal_v0_24__pxrReserved__::Tf_HashState", align 8
  store ptr %0, ptr %3, align 8
  store ptr %1, ptr %4, align 8
  call void @_ZN32pxrInternal_v0_24__pxrReserved__12Tf_HashStateC2Ev(ptr noundef nonnull align 8 dereferenceable(9) %5) #5
  %6 = load ptr, ptr %3, align 8
  %7 = load ptr, ptr %4, align 8
  call void @_ZN32pxrInternal_v0_24__pxrReserved__6TfHash12_CombineImplINS_12Tf_HashStateERKNS_8TfRefPtrINS_22UsdSkel_SkelDefinitionEEEJRKNS_16UsdSkelAnimQueryEEEEvRT_OT0_DpOT1_(ptr noundef nonnull align 8 dereferenceable(9) %5, ptr noundef nonnull align 8 dereferenceable(8) %6, ptr noundef nonnull align 8 dereferenceable(8) %7)
  %8 = call noundef i64 @_ZNK32pxrInternal_v0_24__pxrReserved__15Tf_HashStateAPIINS_12Tf_HashStateEE7GetCodeEv(ptr noundef nonnull align 1 dereferenceable(1) %5)
  ret i64 %8
}

; Function Attrs: mustprogress uwtable
define noundef i64 @_ZN32pxrInternal_v0_24__pxrReserved__10hash_valueERKNS_20UsdSkelSkeletonQueryE(ptr noundef nonnull align 8 dereferenceable(80) %0) #0 {
  %2 = alloca ptr, align 8
  store ptr %0, ptr %2, align 8
  %3 = load ptr, ptr %2, align 8
  %4 = getelementptr inbounds nuw %"class.pxrInternal_v0_24__pxrReserved__::UsdSkelSkeletonQuery", ptr %3, i32 0, i32 0
  %5 = load ptr, ptr %2, align 8
  %6 = getelementptr inbounds nuw %"class.pxrInternal_v0_24__pxrReserved__::UsdSkelSkeletonQuery", ptr %5, i32 0, i32 1
  %7 = call noundef i64 @_ZN32pxrInternal_v0_24__pxrReserved__6TfHash7CombineIJRKNS_8TfRefPtrINS_22UsdSkel_SkelDefinitionEEERKNS_16UsdSkelAnimQueryEEEEmDpOT_(ptr noundef nonnull align 8 dereferenceable(8) %4, ptr noundef nonnull align 8 dereferenceable(8) %6)
  ret i64 %7
}