; Function Attrs: mustprogress uwtable
define noundef i64 @_ZN32pxrInternal_v0_24__pxrReserved__10hash_valueERKNS_20UsdSkelSkeletonQueryE(ptr noundef nonnull align 8 dereferenceable(80) %0) local_unnamed_addr #0 {
  %2 = getelementptr inbounds nuw i8, ptr %0, i64 8
  %3 = load ptr, ptr %0, align 8
  %4 = ptrtoint ptr %3 to i64
  %5 = tail call noundef i64 @_ZN32pxrInternal_v0_24__pxrReserved__10hash_valueERKNS_16UsdSkelAnimQueryE(ptr noundef nonnull align 8 dereferenceable(8) %2)
  %6 = add i64 %5, %4
  %7 = add i64 %6, 1
  %8 = mul i64 %7, %6
  %9 = lshr i64 %8, 1
  %10 = add i64 %9, %5
  %11 = mul i64 %10, -7046029254386353067
  %12 = tail call noundef i64 @llvm.bswap.i64(i64 %11)
  ret i64 %12
}